ccopy_reg
_reconstructor
p1
(cargparse
Namespace
p2
c__builtin__
object
p3
NtRp4
(dp5
S'rnn_size'
p6
I400
sS'train_seq_length'
p7
I300
sS'learning_rate'
p8
F0.0001
sS'save_dir'
p9
S'/Tmp/sotelo/handwriting/'
p10
sS'num_mixture'
p11
I20
sS'batch_size'
p12
I64
sS'num_letters'
p13
I68
sS'experiment_name'
p14
S'baseline'
p15
sS'num_steps'
p16
I1000
sS'size_attention'
p17
I10
sS'valid_seq_length'
p18
I1200
sS'save_every'
p19
I500
sS'num_samples'
p20
I10
sb.